target datalayout = "e-m:e-p270:32:32-p271:32:32-p272:64:64-i64:64-i128:128-f80:128-n8:16:32:64-S128"
target triple = "x86_64-pc-linux-gnu"

%struct.AVFormatContext = type { ptr, ptr, ptr, ptr, ptr, i32, i32, ptr, i32, ptr, i32, ptr, ptr, i64, i64, i64, i32, i32, i32, i64, i64, ptr, i32, i32, ptr, i32, i32, i32, i32, ptr, i64, i32, i32, %struct.AVIOInterruptCB, i32, i32, i32, i32, i64, i32, i32, i32, i32, i32, i32, i32, i32, i32, i32, i32, i32, i64, i32, i32, i32, i32, i32, ptr, ptr, ptr, ptr, i32, ptr, ptr, ptr, ptr, i32, ptr, ptr, i64, ptr, ptr, ptr, i64 }
%struct.AVIOInterruptCB = type { ptr, ptr }
%struct.WVContext = type { [32 x i8], %struct.WvHeader, i32, i32, i32, i32, i32, i32, i64, i64 }
%struct.WvHeader = type { i32, i16, i32, i32, i32, i32, i32, i32, i32 }
%struct.AVPacket = type { ptr, i64, i64, ptr, i32, i32, i32, ptr, i32, i64, i64, ptr, ptr, %struct.AVRational }
%struct.AVRational = type { i32, i32 }

@.str.12 = private unnamed_addr constant [31 x i8] c"Too many samples in block: %u\0A\00", align 1

; Function Attrs: nounwind uwtable
define internal i32 @wv_read_packet(ptr noundef %0, ptr noundef %1) #0 {
  %3 = alloca i32, align 4
  %4 = alloca ptr, align 8
  %5 = alloca ptr, align 8
  %6 = alloca ptr, align 8
  %7 = alloca i32, align 4
  %8 = alloca i32, align 4
  %9 = alloca i64, align 8
  %10 = alloca i32, align 4
  %11 = alloca i32, align 4
  store ptr %0, ptr %4, align 8, !tbaa !15
  store ptr %1, ptr %5, align 8, !tbaa !71
  call void @llvm.lifetime.start.p0(i64 8, ptr %6) #5
  %12 = load ptr, ptr %4, align 8, !tbaa !15
  %13 = getelementptr inbounds nuw %struct.AVFormatContext, ptr %12, i32 0, i32 3
  %14 = load ptr, ptr %13, align 8, !tbaa !33
  store ptr %14, ptr %6, align 8, !tbaa !34
  call void @llvm.lifetime.start.p0(i64 4, ptr %7) #5
  call void @llvm.lifetime.start.p0(i64 4, ptr %8) #5
  call void @llvm.lifetime.start.p0(i64 8, ptr %9) #5
  call void @llvm.lifetime.start.p0(i64 4, ptr %10) #5
  %15 = load ptr, ptr %4, align 8, !tbaa !15
  %16 = getelementptr inbounds nuw %struct.AVFormatContext, ptr %15, i32 0, i32 4
  %17 = load ptr, ptr %16, align 8, !tbaa !17
  %18 = call i32 @avio_feof(ptr noundef %17)
  %19 = icmp ne i32 %18, 0
  br i1 %19, label %20, label %21

20:                                               ; preds = %2
  store i32 -541478725, ptr %3, align 4
  store i32 1, ptr %11, align 4
  br label %178

21:                                               ; preds = %2
  %22 = load ptr, ptr %6, align 8, !tbaa !34
  %23 = getelementptr inbounds nuw %struct.WVContext, ptr %22, i32 0, i32 7
  %24 = load i32, ptr %23, align 8, !tbaa !36
  %25 = icmp ne i32 %24, 0
  br i1 %25, label %26, label %36

26:                                               ; preds = %21
  %27 = load ptr, ptr %4, align 8, !tbaa !15
  %28 = load ptr, ptr %4, align 8, !tbaa !15
  %29 = getelementptr inbounds nuw %struct.AVFormatContext, ptr %28, i32 0, i32 4
  %30 = load ptr, ptr %29, align 8, !tbaa !17
  %31 = call i32 @wv_read_block_header(ptr noundef %27, ptr noundef %30)
  store i32 %31, ptr %7, align 4, !tbaa !40
  %32 = icmp slt i32 %31, 0
  br i1 %32, label %33, label %35

33:                                               ; preds = %26
  %34 = load i32, ptr %7, align 4, !tbaa !40
  store i32 %34, ptr %3, align 4
  store i32 1, ptr %11, align 4
  br label %178

35:                                               ; preds = %26
  br label %36

36:                                               ; preds = %35, %21
  %37 = load ptr, ptr %6, align 8, !tbaa !34
  %38 = getelementptr inbounds nuw %struct.WVContext, ptr %37, i32 0, i32 8
  %39 = load i64, ptr %38, align 8, !tbaa !73
  store i64 %39, ptr %9, align 8, !tbaa !68
  %40 = load ptr, ptr %5, align 8, !tbaa !71
  %41 = load ptr, ptr %6, align 8, !tbaa !34
  %42 = getelementptr inbounds nuw %struct.WVContext, ptr %41, i32 0, i32 1
  %43 = getelementptr inbounds nuw %struct.WvHeader, ptr %42, i32 0, i32 0
  %44 = load i32, ptr %43, align 8, !tbaa !42
  %45 = add i32 %44, 32
  %46 = call i32 @av_new_packet(ptr noundef %40, i32 noundef %45)
  store i32 %46, ptr %7, align 4, !tbaa !40
  %47 = icmp slt i32 %46, 0
  br i1 %47, label %48, label %50

48:                                               ; preds = %36
  %49 = load i32, ptr %7, align 4, !tbaa !40
  store i32 %49, ptr %3, align 4
  store i32 1, ptr %11, align 4
  br label %178

50:                                               ; preds = %36
  %51 = load ptr, ptr %5, align 8, !tbaa !71
  %52 = getelementptr inbounds nuw %struct.AVPacket, ptr %51, i32 0, i32 3
  %53 = load ptr, ptr %52, align 8, !tbaa !74
  %54 = load ptr, ptr %6, align 8, !tbaa !34
  %55 = getelementptr inbounds nuw %struct.WVContext, ptr %54, i32 0, i32 0
  %56 = getelementptr inbounds [32 x i8], ptr %55, i64 0, i64 0
  call void @llvm.memcpy.p0.p0.i64(ptr align 1 %53, ptr align 8 %56, i64 32, i1 false)
  %57 = load ptr, ptr %4, align 8, !tbaa !15
  %58 = getelementptr inbounds nuw %struct.AVFormatContext, ptr %57, i32 0, i32 4
  %59 = load ptr, ptr %58, align 8, !tbaa !17
  %60 = load ptr, ptr %5, align 8, !tbaa !71
  %61 = getelementptr inbounds nuw %struct.AVPacket, ptr %60, i32 0, i32 3
  %62 = load ptr, ptr %61, align 8, !tbaa !74
  %63 = getelementptr inbounds i8, ptr %62, i64 32
  %64 = load ptr, ptr %6, align 8, !tbaa !34
  %65 = getelementptr inbounds nuw %struct.WVContext, ptr %64, i32 0, i32 1
  %66 = getelementptr inbounds nuw %struct.WvHeader, ptr %65, i32 0, i32 0
  %67 = load i32, ptr %66, align 8, !tbaa !42
  %68 = call i32 @avio_read(ptr noundef %59, ptr noundef %63, i32 noundef %67)
  store i32 %68, ptr %7, align 4, !tbaa !40
  %69 = load i32, ptr %7, align 4, !tbaa !40
  %70 = load ptr, ptr %6, align 8, !tbaa !34
  %71 = getelementptr inbounds nuw %struct.WVContext, ptr %70, i32 0, i32 1
  %72 = getelementptr inbounds nuw %struct.WvHeader, ptr %71, i32 0, i32 0
  %73 = load i32, ptr %72, align 8, !tbaa !42
  %74 = icmp ne i32 %69, %73
  br i1 %74, label %75, label %76

75:                                               ; preds = %50
  store i32 -5, ptr %3, align 4
  store i32 1, ptr %11, align 4
  br label %178

76:                                               ; preds = %50
  br label %77

77:                                               ; preds = %147, %76
  %78 = load ptr, ptr %6, align 8, !tbaa !34
  %79 = getelementptr inbounds nuw %struct.WVContext, ptr %78, i32 0, i32 1
  %80 = getelementptr inbounds nuw %struct.WvHeader, ptr %79, i32 0, i32 5
  %81 = load i32, ptr %80, align 4, !tbaa !75
  %82 = and i32 %81, 4096
  %83 = icmp ne i32 %82, 0
  %84 = xor i1 %83, true
  br i1 %84, label %85, label %148

85:                                               ; preds = %77
  %86 = load ptr, ptr %4, align 8, !tbaa !15
  %87 = load ptr, ptr %4, align 8, !tbaa !15
  %88 = getelementptr inbounds nuw %struct.AVFormatContext, ptr %87, i32 0, i32 4
  %89 = load ptr, ptr %88, align 8, !tbaa !17
  %90 = call i32 @wv_read_block_header(ptr noundef %86, ptr noundef %89)
  store i32 %90, ptr %7, align 4, !tbaa !40
  %91 = icmp slt i32 %90, 0
  br i1 %91, label %92, label %94

92:                                               ; preds = %85
  %93 = load i32, ptr %7, align 4, !tbaa !40
  store i32 %93, ptr %3, align 4
  store i32 1, ptr %11, align 4
  br label %178

94:                                               ; preds = %85
  %95 = load ptr, ptr %5, align 8, !tbaa !71
  %96 = getelementptr inbounds nuw %struct.AVPacket, ptr %95, i32 0, i32 4
  %97 = load i32, ptr %96, align 8, !tbaa !76
  store i32 %97, ptr %8, align 4, !tbaa !40
  %98 = load ptr, ptr %5, align 8, !tbaa !71
  %99 = load ptr, ptr %6, align 8, !tbaa !34
  %100 = getelementptr inbounds nuw %struct.WVContext, ptr %99, i32 0, i32 1
  %101 = getelementptr inbounds nuw %struct.WvHeader, ptr %100, i32 0, i32 0
  %102 = load i32, ptr %101, align 8, !tbaa !42
  %103 = add i32 32, %102
  %104 = call i32 @av_grow_packet(ptr noundef %98, i32 noundef %103)
  store i32 %104, ptr %7, align 4, !tbaa !40
  %105 = icmp slt i32 %104, 0
  br i1 %105, label %106, label %108

106:                                              ; preds = %94
  %107 = load i32, ptr %7, align 4, !tbaa !40
  store i32 %107, ptr %3, align 4
  store i32 1, ptr %11, align 4
  br label %178

108:                                              ; preds = %94
  %109 = load ptr, ptr %5, align 8, !tbaa !71
  %110 = getelementptr inbounds nuw %struct.AVPacket, ptr %109, i32 0, i32 3
  %111 = load ptr, ptr %110, align 8, !tbaa !74
  %112 = load i32, ptr %8, align 4, !tbaa !40
  %113 = sext i32 %112 to i64
  %114 = getelementptr inbounds i8, ptr %111, i64 %113
  %115 = load ptr, ptr %6, align 8, !tbaa !34
  %116 = getelementptr inbounds nuw %struct.WVContext, ptr %115, i32 0, i32 0
  %117 = getelementptr inbounds [32 x i8], ptr %116, i64 0, i64 0
  call void @llvm.memcpy.p0.p0.i64(ptr align 1 %114, ptr align 8 %117, i64 32, i1 false)
  %118 = load ptr, ptr %4, align 8, !tbaa !15
  %119 = getelementptr inbounds nuw %struct.AVFormatContext, ptr %118, i32 0, i32 4
  %120 = load ptr, ptr %119, align 8, !tbaa !17
  %121 = load ptr, ptr %5, align 8, !tbaa !71
  %122 = getelementptr inbounds nuw %struct.AVPacket, ptr %121, i32 0, i32 3
  %123 = load ptr, ptr %122, align 8, !tbaa !74
  %124 = load i32, ptr %8, align 4, !tbaa !40
  %125 = sext i32 %124 to i64
  %126 = getelementptr inbounds i8, ptr %123, i64 %125
  %127 = getelementptr inbounds i8, ptr %126, i64 32
  %128 = load ptr, ptr %6, align 8, !tbaa !34
  %129 = getelementptr inbounds nuw %struct.WVContext, ptr %128, i32 0, i32 1
  %130 = getelementptr inbounds nuw %struct.WvHeader, ptr %129, i32 0, i32 0
  %131 = load i32, ptr %130, align 8, !tbaa !42
  %132 = call i32 @avio_read(ptr noundef %120, ptr noundef %127, i32 noundef %131)
  store i32 %132, ptr %7, align 4, !tbaa !40
  %133 = load i32, ptr %7, align 4, !tbaa !40
  %134 = load ptr, ptr %6, align 8, !tbaa !34
  %135 = getelementptr inbounds nuw %struct.WVContext, ptr %134, i32 0, i32 1
  %136 = getelementptr inbounds nuw %struct.WvHeader, ptr %135, i32 0, i32 0
  %137 = load i32, ptr %136, align 8, !tbaa !42
  %138 = icmp ne i32 %133, %137
  br i1 %138, label %139, label %147

139:                                              ; preds = %108
  %140 = load i32, ptr %7, align 4, !tbaa !40
  %141 = icmp slt i32 %140, 0
  br i1 %141, label %142, label %144

142:                                              ; preds = %139
  %143 = load i32, ptr %7, align 4, !tbaa !40
  br label %145

144:                                              ; preds = %139
  br label %145

145:                                              ; preds = %144, %142
  %146 = phi i32 [ %143, %142 ], [ -541478725, %144 ]
  store i32 %146, ptr %3, align 4
  store i32 1, ptr %11, align 4
  br label %178

147:                                              ; preds = %108
  br label %77, !llvm.loop !77

148:                                              ; preds = %77
  %149 = load ptr, ptr %5, align 8, !tbaa !71
  %150 = getelementptr inbounds nuw %struct.AVPacket, ptr %149, i32 0, i32 5
  store i32 0, ptr %150, align 4, !tbaa !79
  %151 = load i64, ptr %9, align 8, !tbaa !68
  %152 = load ptr, ptr %5, align 8, !tbaa !71
  %153 = getelementptr inbounds nuw %struct.AVPacket, ptr %152, i32 0, i32 10
  store i64 %151, ptr %153, align 8, !tbaa !80
  %154 = load ptr, ptr %6, align 8, !tbaa !34
  %155 = getelementptr inbounds nuw %struct.WVContext, ptr %154, i32 0, i32 7
  store i32 1, ptr %155, align 8, !tbaa !36
  %156 = load ptr, ptr %6, align 8, !tbaa !34
  %157 = getelementptr inbounds nuw %struct.WVContext, ptr %156, i32 0, i32 1
  %158 = getelementptr inbounds nuw %struct.WvHeader, ptr %157, i32 0, i32 3
  %159 = load i32, ptr %158, align 4, !tbaa !81
  %160 = zext i32 %159 to i64
  %161 = load ptr, ptr %5, align 8, !tbaa !71
  %162 = getelementptr inbounds nuw %struct.AVPacket, ptr %161, i32 0, i32 1
  store i64 %160, ptr %162, align 8, !tbaa !82
  %163 = load ptr, ptr %6, align 8, !tbaa !34
  %164 = getelementptr inbounds nuw %struct.WVContext, ptr %163, i32 0, i32 1
  %165 = getelementptr inbounds nuw %struct.WvHeader, ptr %164, i32 0, i32 4
  %166 = load i32, ptr %165, align 8, !tbaa !41
  store i32 %166, ptr %10, align 4, !tbaa !40
  %167 = load i32, ptr %10, align 4, !tbaa !40
  %168 = icmp ugt i32 %167, 2147483647
  br i1 %168, label %169, label %172

169:                                              ; preds = %148
  %170 = load ptr, ptr %4, align 8, !tbaa !15
  %171 = load i32, ptr %10, align 4, !tbaa !40
  call void (ptr, i32, ptr, ...) @av_log(ptr noundef %170, i32 noundef 24, ptr noundef @.str.12, i32 noundef %171)
  br label %177

172:                                              ; preds = %148
  %173 = load i32, ptr %10, align 4, !tbaa !40
  %174 = zext i32 %173 to i64
  %175 = load ptr, ptr %5, align 8, !tbaa !71
  %176 = getelementptr inbounds nuw %struct.AVPacket, ptr %175, i32 0, i32 9
  store i64 %174, ptr %176, align 8, !tbaa !83
  br label %177

177:                                              ; preds = %172, %169
  store i32 0, ptr %3, align 4
  store i32 1, ptr %11, align 4
  br label %178

178:                                              ; preds = %177, %145, %106, %92, %75, %48, %33, %20
  call void @llvm.lifetime.end.p0(i64 4, ptr %10) #5
  call void @llvm.lifetime.end.p0(i64 8, ptr %9) #5
  call void @llvm.lifetime.end.p0(i64 4, ptr %8) #5
  call void @llvm.lifetime.end.p0(i64 4, ptr %7) #5
  call void @llvm.lifetime.end.p0(i64 8, ptr %6) #5
  %179 = load i32, ptr %3, align 4
  ret i32 %179
}