; Function Attrs: nounwind uwtable
define internal i32 @wv_read_packet(ptr noundef %0, ptr noundef %1) #1 {
  %3 = getelementptr inbounds nuw i8, ptr %0, i64 24
  %4 = load ptr, ptr %3, align 8, !tbaa !28
  %5 = getelementptr inbounds nuw i8, ptr %0, i64 32
  %6 = load ptr, ptr %5, align 8, !tbaa !13
  %7 = tail call i32 @avio_feof(ptr noundef %6) #4
  %.not = icmp eq i32 %7, 0
  br i1 %.not, label %8, label %.loopexit

8:                                                ; preds = %2
  %9 = getelementptr inbounds nuw i8, ptr %4, i64 88
  %10 = load i32, ptr %9, align 8, !tbaa !29
  %.not54 = icmp eq i32 %10, 0
  br i1 %.not54, label %15, label %11

11:                                               ; preds = %8
  %12 = load ptr, ptr %5, align 8, !tbaa !13
  %13 = tail call fastcc i32 @wv_read_block_header(ptr noundef nonnull %0, ptr noundef %12)
  %14 = icmp slt i32 %13, 0
  br i1 %14, label %.loopexit, label %15

15:                                               ; preds = %11, %8
  %16 = getelementptr inbounds nuw i8, ptr %4, i64 96
  %17 = load i64, ptr %16, align 8, !tbaa !60
  %18 = getelementptr inbounds nuw i8, ptr %4, i64 32
  %19 = load i32, ptr %18, align 8, !tbaa !34
  %20 = add i32 %19, 32
  %21 = tail call i32 @av_new_packet(ptr noundef %1, i32 noundef %20) #4
  %22 = icmp slt i32 %21, 0
  br i1 %22, label %.loopexit, label %23

23:                                               ; preds = %15
  %24 = getelementptr inbounds nuw i8, ptr %1, i64 24
  %25 = load ptr, ptr %24, align 8, !tbaa !61
  tail call void @llvm.memcpy.p0.p0.i64(ptr noundef nonnull align 1 dereferenceable(32) %25, ptr noundef nonnull align 8 dereferenceable(32) %4, i64 32, i1 false)
  %26 = load ptr, ptr %5, align 8, !tbaa !13
  %27 = load ptr, ptr %24, align 8, !tbaa !61
  %28 = getelementptr inbounds nuw i8, ptr %27, i64 32
  %29 = load i32, ptr %18, align 8, !tbaa !34
  %30 = tail call i32 @avio_read(ptr noundef %26, ptr noundef nonnull %28, i32 noundef %29) #4
  %31 = load i32, ptr %18, align 8, !tbaa !34
  %.not55 = icmp eq i32 %30, %31
  br i1 %.not55, label %.preheader, label %.loopexit

.preheader:                                       ; preds = %23
  %32 = getelementptr inbounds nuw i8, ptr %4, i64 52
  %33 = getelementptr inbounds nuw i8, ptr %1, i64 32
  br label %34

34:                                               ; preds = %.preheader, %47
  %35 = load i32, ptr %32, align 4, !tbaa !62
  %36 = and i32 %35, 4096
  %.not56 = icmp eq i32 %36, 0
  br i1 %.not56, label %37, label %61

37:                                               ; preds = %34
  %38 = load ptr, ptr %5, align 8, !tbaa !13
  %39 = tail call fastcc i32 @wv_read_block_header(ptr noundef nonnull %0, ptr noundef %38)
  %40 = icmp slt i32 %39, 0
  br i1 %40, label %.loopexit, label %41

41:                                               ; preds = %37
  %42 = load i32, ptr %33, align 8, !tbaa !63
  %43 = load i32, ptr %18, align 8, !tbaa !34
  %44 = add i32 %43, 32
  %45 = tail call i32 @av_grow_packet(ptr noundef nonnull %1, i32 noundef %44) #4
  %46 = icmp slt i32 %45, 0
  br i1 %46, label %.loopexit, label %47

47:                                               ; preds = %41
  %48 = load ptr, ptr %24, align 8, !tbaa !61
  %49 = sext i32 %42 to i64
  %50 = getelementptr inbounds i8, ptr %48, i64 %49
  tail call void @llvm.memcpy.p0.p0.i64(ptr noundef nonnull align 1 dereferenceable(32) %50, ptr noundef nonnull align 8 dereferenceable(32) %4, i64 32, i1 false)
  %51 = load ptr, ptr %5, align 8, !tbaa !13
  %52 = load ptr, ptr %24, align 8, !tbaa !61
  %53 = getelementptr inbounds i8, ptr %52, i64 %49
  %54 = getelementptr inbounds nuw i8, ptr %53, i64 32
  %55 = load i32, ptr %18, align 8, !tbaa !34
  %56 = tail call i32 @avio_read(ptr noundef %51, ptr noundef nonnull %54, i32 noundef %55) #4
  %57 = load i32, ptr %18, align 8, !tbaa !34
  %.not57 = icmp eq i32 %56, %57
  br i1 %.not57, label %34, label %58, !llvm.loop !64

58:                                               ; preds = %47
  %59 = icmp slt i32 %56, 0
  %60 = select i1 %59, i32 %56, i32 -541478725
  br label %.loopexit

61:                                               ; preds = %34
  %62 = getelementptr inbounds nuw i8, ptr %1, i64 36
  store i32 0, ptr %62, align 4, !tbaa !66
  %63 = getelementptr inbounds nuw i8, ptr %1, i64 72
  store i64 %17, ptr %63, align 8, !tbaa !67
  store i32 1, ptr %9, align 8, !tbaa !29
  %64 = getelementptr inbounds nuw i8, ptr %4, i64 44
  %65 = load i32, ptr %64, align 4, !tbaa !68
  %66 = zext i32 %65 to i64
  %67 = getelementptr inbounds nuw i8, ptr %1, i64 8
  store i64 %66, ptr %67, align 8, !tbaa !69
  %68 = getelementptr inbounds nuw i8, ptr %4, i64 48
  %69 = load i32, ptr %68, align 8, !tbaa !33
  %70 = icmp slt i32 %69, 0
  br i1 %70, label %71, label %72

71:                                               ; preds = %61
  tail call void (ptr, i32, ptr, ...) @av_log(ptr noundef nonnull %0, i32 noundef 24, ptr noundef nonnull @.str.12, i32 noundef %69) #4
  br label %.loopexit

72:                                               ; preds = %61
  %73 = zext nneg i32 %69 to i64
  %74 = getelementptr inbounds nuw i8, ptr %1, i64 64
  store i64 %73, ptr %74, align 8, !tbaa !70
  br label %.loopexit

.loopexit:                                        ; preds = %41, %37, %71, %72, %23, %15, %11, %2, %58
  %.0 = phi i32 [ %60, %58 ], [ -541478725, %2 ], [ %13, %11 ], [ %21, %15 ], [ -5, %23 ], [ 0, %72 ], [ 0, %71 ], [ %45, %41 ], [ %39, %37 ]
  ret i32 %.0
}